target datalayout = "e-m:e-p270:32:32-p271:32:32-p272:64:64-i64:64-i128:128-f80:128-n8:16:32:64-S128"
target triple = "x86_64-pc-linux-gnu"

%struct.expert_field = type { i32, i32 }
%struct._proto_node = type { ptr, ptr, ptr, ptr, ptr, ptr, ptr }
%struct.field_info = type { ptr, i32, i32, i32, i32, i32, i32, ptr, ptr, ptr, i32, i32 }

@hf_oran_du_port_id = internal global i32 0, align 4
@hf_oran_bandsector_id = internal global i32 0, align 4
@hf_oran_cc_id = internal global i32 0, align 4
@hf_oran_ru_port_id = internal global i32 0, align 4
@hf_oran_c_eAxC_ID = internal global i32 0, align 4
@ett_oran_ecpri_pcid = internal global i32 0, align 4
@ei_oran_invalid_eaxc_bit_width = internal global %struct.expert_field zeroinitializer, align 4
@pref_du_port_id_bits = internal global i32 4, align 4
@pref_bandsector_id_bits = internal global i32 4, align 4
@pref_cc_id_bits = internal global i32 4, align 4
@pref_ru_port_id_bits = internal global i32 4, align 4
@.str.1185 = private unnamed_addr constant [64 x i8] c" (DU_Port_ID: %d, BandSector_ID: %d, CC_ID: %d, RU_Port_ID: %d)\00", align 1
@.str.1186 = private unnamed_addr constant [12 x i8] c"%x:%x:%x:%x\00", align 1

; Function Attrs: inlinehint nounwind null_pointer_is_valid sspstrong uwtable
define internal void @proto_item_set_generated(ptr noundef %0) #5 {
  %2 = alloca ptr, align 8
  store ptr %0, ptr %2, align 8
  %3 = load ptr, ptr %2, align 8
  %4 = icmp ne ptr %3, null
  br i1 %4, label %5, label %24

5:                                                ; preds = %1
  br label %6

6:                                                ; preds = %5
  %7 = load ptr, ptr %2, align 8
  %8 = getelementptr inbounds nuw %struct._proto_node, ptr %7, i32 0, i32 5
  %9 = load ptr, ptr %8, align 8
  %10 = icmp ne ptr %9, null
  br i1 %10, label %11, label %22

11:                                               ; preds = %6
  %12 = load ptr, ptr %2, align 8
  %13 = getelementptr inbounds nuw %struct._proto_node, ptr %12, i32 0, i32 5
  %14 = load ptr, ptr %13, align 8
  %15 = getelementptr inbounds nuw %struct.field_info, ptr %14, i32 0, i32 6
  %16 = load i32, ptr %15, align 4
  %17 = or i32 %16, 2
  %18 = load ptr, ptr %2, align 8
  %19 = getelementptr inbounds nuw %struct._proto_node, ptr %18, i32 0, i32 5
  %20 = load ptr, ptr %19, align 8
  %21 = getelementptr inbounds nuw %struct.field_info, ptr %20, i32 0, i32 6
  store i32 %17, ptr %21, align 4
  br label %22

22:                                               ; preds = %11, %6
  br label %23

23:                                               ; preds = %22
  br label %24

24:                                               ; preds = %23, %1
  ret void
}

; Function Attrs: null_pointer_is_valid sspstrong uwtable
define internal void @addPcOrRtcid(ptr noundef %0, ptr noundef %1, ptr noundef %2, i32 noundef %3, ptr noundef %4) #0 {
  %6 = alloca ptr, align 8
  %7 = alloca ptr, align 8
  %8 = alloca ptr, align 8
  %9 = alloca i32, align 4
  %10 = alloca ptr, align 8
  %11 = alloca ptr, align 8
  %12 = alloca ptr, align 8
  %13 = alloca i64, align 8
  %14 = alloca i64, align 8
  %15 = alloca i64, align 8
  %16 = alloca i64, align 8
  %17 = alloca i32, align 4
  %18 = alloca i32, align 4
  %19 = alloca i32, align 4
  %20 = alloca [16 x i8], align 16
  %21 = alloca ptr, align 8
  store ptr %0, ptr %6, align 8
  store ptr %1, ptr %7, align 8
  store ptr %2, ptr %8, align 8
  store i32 %3, ptr %9, align 4
  store ptr %4, ptr %10, align 8
  call void @llvm.lifetime.start.p0(i64 8, ptr %11) #12
  %22 = load ptr, ptr %7, align 8
  %23 = load i32, ptr %9, align 4
  %24 = load ptr, ptr %6, align 8
  %25 = load ptr, ptr %8, align 8
  %26 = load i32, ptr %25, align 4
  %27 = call ptr @proto_tree_add_item(ptr noundef %22, i32 noundef %23, ptr noundef %24, i32 noundef %26, i32 noundef 2, i32 noundef 0)
  store ptr %27, ptr %11, align 8
  call void @llvm.lifetime.start.p0(i64 8, ptr %12) #12
  %28 = load ptr, ptr %11, align 8
  %29 = load i32, ptr @ett_oran_ecpri_pcid, align 4
  %30 = call ptr @proto_item_add_subtree(ptr noundef %28, i32 noundef %29)
  store ptr %30, ptr %12, align 8
  call void @llvm.lifetime.start.p0(i64 8, ptr %13) #12
  call void @llvm.lifetime.start.p0(i64 8, ptr %14) #12
  call void @llvm.lifetime.start.p0(i64 8, ptr %15) #12
  call void @llvm.lifetime.start.p0(i64 8, ptr %16) #12
  store i64 0, ptr %16, align 8
  call void @llvm.lifetime.start.p0(i64 4, ptr %17) #12
  %31 = load ptr, ptr %8, align 8
  %32 = load i32, ptr %31, align 4
  store i32 %32, ptr %17, align 4
  %33 = load i32, ptr @pref_du_port_id_bits, align 4
  %34 = icmp ugt i32 %33, 0
  br i1 %34, label %35, label %53

35:                                               ; preds = %5
  %36 = load i32, ptr @pref_bandsector_id_bits, align 4
  %37 = icmp ugt i32 %36, 0
  br i1 %37, label %38, label %53

38:                                               ; preds = %35
  %39 = load i32, ptr @pref_cc_id_bits, align 4
  %40 = icmp ugt i32 %39, 0
  br i1 %40, label %41, label %53

41:                                               ; preds = %38
  %42 = load i32, ptr @pref_ru_port_id_bits, align 4
  %43 = icmp ugt i32 %42, 0
  br i1 %43, label %44, label %53

44:                                               ; preds = %41
  %45 = load i32, ptr @pref_du_port_id_bits, align 4
  %46 = load i32, ptr @pref_bandsector_id_bits, align 4
  %47 = add i32 %45, %46
  %48 = load i32, ptr @pref_cc_id_bits, align 4
  %49 = add i32 %47, %48
  %50 = load i32, ptr @pref_ru_port_id_bits, align 4
  %51 = add i32 %49, %50
  %52 = icmp eq i32 %51, 16
  br i1 %52, label %60, label %53

53:                                               ; preds = %44, %41, %38, %35, %5
  %54 = load ptr, ptr %7, align 8
  %55 = call ptr @expert_add_info(ptr noundef null, ptr noundef %54, ptr noundef @ei_oran_invalid_eaxc_bit_width)
  %56 = load ptr, ptr %10, align 8
  store i16 0, ptr %56, align 2
  %57 = load ptr, ptr %8, align 8
  %58 = load i32, ptr %57, align 4
  %59 = add i32 %58, 2
  store i32 %59, ptr %57, align 4
  store i32 1, ptr %18, align 4
  br label %131

60:                                               ; preds = %44
  call void @llvm.lifetime.start.p0(i64 4, ptr %19) #12
  %61 = load ptr, ptr %8, align 8
  %62 = load i32, ptr %61, align 4
  %63 = mul i32 %62, 8
  store i32 %63, ptr %19, align 4
  %64 = load ptr, ptr %6, align 8
  %65 = load ptr, ptr %8, align 8
  %66 = load i32, ptr %65, align 4
  %67 = call zeroext i16 @tvb_get_uint16(ptr noundef %64, i32 noundef %66, i32 noundef 0)
  %68 = load ptr, ptr %10, align 8
  store i16 %67, ptr %68, align 2
  %69 = load ptr, ptr %12, align 8
  %70 = load i32, ptr @hf_oran_du_port_id, align 4
  %71 = load ptr, ptr %6, align 8
  %72 = load i32, ptr %19, align 4
  %73 = load i32, ptr @pref_du_port_id_bits, align 4
  %74 = call ptr @proto_tree_add_bits_ret_val(ptr noundef %69, i32 noundef %70, ptr noundef %71, i32 noundef %72, i32 noundef %73, ptr noundef %13, i32 noundef 0)
  %75 = load i32, ptr @pref_du_port_id_bits, align 4
  %76 = load i32, ptr %19, align 4
  %77 = add i32 %76, %75
  store i32 %77, ptr %19, align 4
  %78 = load ptr, ptr %12, align 8
  %79 = load i32, ptr @hf_oran_bandsector_id, align 4
  %80 = load ptr, ptr %6, align 8
  %81 = load i32, ptr %19, align 4
  %82 = load i32, ptr @pref_bandsector_id_bits, align 4
  %83 = call ptr @proto_tree_add_bits_ret_val(ptr noundef %78, i32 noundef %79, ptr noundef %80, i32 noundef %81, i32 noundef %82, ptr noundef %14, i32 noundef 0)
  %84 = load i32, ptr @pref_bandsector_id_bits, align 4
  %85 = load i32, ptr %19, align 4
  %86 = add i32 %85, %84
  store i32 %86, ptr %19, align 4
  %87 = load ptr, ptr %12, align 8
  %88 = load i32, ptr @hf_oran_cc_id, align 4
  %89 = load ptr, ptr %6, align 8
  %90 = load i32, ptr %19, align 4
  %91 = load i32, ptr @pref_cc_id_bits, align 4
  %92 = call ptr @proto_tree_add_bits_ret_val(ptr noundef %87, i32 noundef %88, ptr noundef %89, i32 noundef %90, i32 noundef %91, ptr noundef %15, i32 noundef 0)
  %93 = load i32, ptr @pref_cc_id_bits, align 4
  %94 = load i32, ptr %19, align 4
  %95 = add i32 %94, %93
  store i32 %95, ptr %19, align 4
  %96 = load ptr, ptr %12, align 8
  %97 = load i32, ptr @hf_oran_ru_port_id, align 4
  %98 = load ptr, ptr %6, align 8
  %99 = load i32, ptr %19, align 4
  %100 = load i32, ptr @pref_ru_port_id_bits, align 4
  %101 = call ptr @proto_tree_add_bits_ret_val(ptr noundef %96, i32 noundef %97, ptr noundef %98, i32 noundef %99, i32 noundef %100, ptr noundef %16, i32 noundef 0)
  %102 = load ptr, ptr %8, align 8
  %103 = load i32, ptr %102, align 4
  %104 = add i32 %103, 2
  store i32 %104, ptr %102, align 4
  %105 = load ptr, ptr %11, align 8
  %106 = load i64, ptr %13, align 8
  %107 = trunc i64 %106 to i32
  %108 = load i64, ptr %14, align 8
  %109 = trunc i64 %108 to i32
  %110 = load i64, ptr %15, align 8
  %111 = trunc i64 %110 to i32
  %112 = load i64, ptr %16, align 8
  %113 = trunc i64 %112 to i32
  call void (ptr, ptr, ...) @proto_item_append_text(ptr noundef %105, ptr noundef @.str.1185, i32 noundef %107, i32 noundef %109, i32 noundef %111, i32 noundef %113)
  call void @llvm.lifetime.start.p0(i64 16, ptr %20) #12
  %114 = getelementptr inbounds [16 x i8], ptr %20, i64 0, i64 0
  %115 = load i64, ptr %13, align 8
  %116 = trunc i64 %115 to i32
  %117 = load i64, ptr %14, align 8
  %118 = trunc i64 %117 to i32
  %119 = load i64, ptr %15, align 8
  %120 = trunc i64 %119 to i32
  %121 = load i64, ptr %16, align 8
  %122 = trunc i64 %121 to i32
  %123 = call i32 (ptr, i64, i32, i64, ptr, ...) @__snprintf_chk(ptr noundef %114, i64 noundef 16, i32 noundef 2, i64 noundef 16, ptr noundef @.str.1186, i32 noundef %116, i32 noundef %118, i32 noundef %120, i32 noundef %122)
  call void @llvm.lifetime.start.p0(i64 8, ptr %21) #12
  %124 = load ptr, ptr %12, align 8
  %125 = load i32, ptr @hf_oran_c_eAxC_ID, align 4
  %126 = load ptr, ptr %6, align 8
  %127 = load i32, ptr %17, align 4
  %128 = getelementptr inbounds [16 x i8], ptr %20, i64 0, i64 0
  %129 = call ptr @proto_tree_add_string(ptr noundef %124, i32 noundef %125, ptr noundef %126, i32 noundef %127, i32 noundef 2, ptr noundef %128)
  store ptr %129, ptr %21, align 8
  %130 = load ptr, ptr %21, align 8
  call void @proto_item_set_generated(ptr noundef %130)
  call void @llvm.lifetime.end.p0(i64 8, ptr %21) #12
  call void @llvm.lifetime.end.p0(i64 16, ptr %20) #12
  call void @llvm.lifetime.end.p0(i64 4, ptr %19) #12
  store i32 0, ptr %18, align 4
  br label %131

131:                                              ; preds = %60, %53
  call void @llvm.lifetime.end.p0(i64 4, ptr %17) #12
  call void @llvm.lifetime.end.p0(i64 8, ptr %16) #12
  call void @llvm.lifetime.end.p0(i64 8, ptr %15) #12
  call void @llvm.lifetime.end.p0(i64 8, ptr %14) #12
  call void @llvm.lifetime.end.p0(i64 8, ptr %13) #12
  call void @llvm.lifetime.end.p0(i64 8, ptr %12) #12
  call void @llvm.lifetime.end.p0(i64 8, ptr %11) #12
  %132 = load i32, ptr %18, align 4
  switch i32 %132, label %134 [
    i32 0, label %133
    i32 1, label %133
  ]

133:                                              ; preds = %131, %131
  ret void

134:                                              ; preds = %131
  unreachable
}