; Function Attrs: null_pointer_is_valid sspstrong uwtable
define internal fastcc void @addPcOrRtcid(ptr noundef %0, ptr noundef %1, ptr noundef captures(none) %2, i32 noundef %3, ptr noundef writeonly captures(none) initializes((0, 2)) %4) unnamed_addr #0 {
  %6 = alloca i64, align 8
  %7 = alloca i64, align 8
  %8 = alloca i64, align 8
  %9 = alloca i64, align 8
  %10 = alloca [16 x i8], align 16
  %11 = load i32, ptr %2, align 4
  %12 = tail call ptr @proto_tree_add_item(ptr noundef %1, i32 noundef %3, ptr noundef %0, i32 noundef %11, i32 noundef 2, i32 noundef 0)
  %13 = load i32, ptr @ett_oran_ecpri_pcid, align 4
  %14 = tail call ptr @proto_item_add_subtree(ptr noundef %12, i32 noundef %13)
  call void @llvm.lifetime.start.p0(i64 8, ptr nonnull %6) #13
  call void @llvm.lifetime.start.p0(i64 8, ptr nonnull %7) #13
  call void @llvm.lifetime.start.p0(i64 8, ptr nonnull %8) #13
  call void @llvm.lifetime.start.p0(i64 8, ptr nonnull %9) #13
  store i64 0, ptr %9, align 8
  %15 = load i32, ptr %2, align 4
  %16 = load i32, ptr @pref_du_port_id_bits, align 4
  %17 = icmp ne i32 %16, 0
  %18 = load i32, ptr @pref_bandsector_id_bits, align 4
  %19 = icmp ne i32 %18, 0
  %or.cond = select i1 %17, i1 %19, i1 false
  %20 = load i32, ptr @pref_cc_id_bits, align 4
  %21 = icmp ne i32 %20, 0
  %or.cond3 = select i1 %or.cond, i1 %21, i1 false
  %22 = load i32, ptr @pref_ru_port_id_bits, align 4
  %23 = icmp ne i32 %22, 0
  %or.cond5 = select i1 %or.cond3, i1 %23, i1 false
  br i1 %or.cond5, label %24, label %29

24:                                               ; preds = %5
  %25 = add i32 %18, %16
  %26 = add i32 %25, %20
  %27 = add i32 %26, %22
  %28 = icmp eq i32 %27, 16
  br i1 %28, label %33, label %29

29:                                               ; preds = %24, %5
  %30 = tail call ptr @expert_add_info(ptr noundef null, ptr noundef %1, ptr noundef nonnull @ei_oran_invalid_eaxc_bit_width)
  store i16 0, ptr %4, align 2
  %31 = load i32, ptr %2, align 4
  %32 = add i32 %31, 2
  store i32 %32, ptr %2, align 4
  br label %82

33:                                               ; preds = %24
  %34 = shl i32 %15, 3
  %35 = tail call zeroext i16 @tvb_get_uint16(ptr noundef %0, i32 noundef %15, i32 noundef 0)
  store i16 %35, ptr %4, align 2
  %36 = load i32, ptr @hf_oran_du_port_id, align 4
  %37 = load i32, ptr @pref_du_port_id_bits, align 4
  %38 = call ptr @proto_tree_add_bits_ret_val(ptr noundef %14, i32 noundef %36, ptr noundef %0, i32 noundef %34, i32 noundef %37, ptr noundef nonnull %6, i32 noundef 0)
  %39 = load i32, ptr @pref_du_port_id_bits, align 4
  %40 = add i32 %39, %34
  %41 = load i32, ptr @hf_oran_bandsector_id, align 4
  %42 = load i32, ptr @pref_bandsector_id_bits, align 4
  %43 = call ptr @proto_tree_add_bits_ret_val(ptr noundef %14, i32 noundef %41, ptr noundef %0, i32 noundef %40, i32 noundef %42, ptr noundef nonnull %7, i32 noundef 0)
  %44 = load i32, ptr @pref_bandsector_id_bits, align 4
  %45 = add i32 %44, %40
  %46 = load i32, ptr @hf_oran_cc_id, align 4
  %47 = load i32, ptr @pref_cc_id_bits, align 4
  %48 = call ptr @proto_tree_add_bits_ret_val(ptr noundef %14, i32 noundef %46, ptr noundef %0, i32 noundef %45, i32 noundef %47, ptr noundef nonnull %8, i32 noundef 0)
  %49 = load i32, ptr @pref_cc_id_bits, align 4
  %50 = add i32 %49, %45
  %51 = load i32, ptr @hf_oran_ru_port_id, align 4
  %52 = load i32, ptr @pref_ru_port_id_bits, align 4
  %53 = call ptr @proto_tree_add_bits_ret_val(ptr noundef %14, i32 noundef %51, ptr noundef %0, i32 noundef %50, i32 noundef %52, ptr noundef nonnull %9, i32 noundef 0)
  %54 = load i32, ptr %2, align 4
  %55 = add i32 %54, 2
  store i32 %55, ptr %2, align 4
  %56 = load i64, ptr %6, align 8
  %57 = trunc i64 %56 to i32
  %58 = load i64, ptr %7, align 8
  %59 = trunc i64 %58 to i32
  %60 = load i64, ptr %8, align 8
  %61 = trunc i64 %60 to i32
  %62 = load i64, ptr %9, align 8
  %63 = trunc i64 %62 to i32
  call void (ptr, ptr, ...) @proto_item_append_text(ptr noundef %12, ptr noundef nonnull @.str.1185, i32 noundef %57, i32 noundef %59, i32 noundef %61, i32 noundef %63)
  call void @llvm.lifetime.start.p0(i64 16, ptr nonnull %10) #13
  %64 = load i64, ptr %6, align 8
  %65 = trunc i64 %64 to i32
  %66 = load i64, ptr %7, align 8
  %67 = trunc i64 %66 to i32
  %68 = load i64, ptr %8, align 8
  %69 = trunc i64 %68 to i32
  %70 = load i64, ptr %9, align 8
  %71 = trunc i64 %70 to i32
  %72 = call i32 (ptr, i64, i32, i64, ptr, ...) @__snprintf_chk(ptr noundef nonnull %10, i64 noundef 16, i32 noundef 2, i64 noundef 16, ptr noundef nonnull @.str.1186, i32 noundef %65, i32 noundef %67, i32 noundef %69, i32 noundef %71)
  %73 = load i32, ptr @hf_oran_c_eAxC_ID, align 4
  %74 = call ptr @proto_tree_add_string(ptr noundef %14, i32 noundef %73, ptr noundef %0, i32 noundef %15, i32 noundef 2, ptr noundef nonnull %10)
  %.not.i = icmp eq ptr %74, null
  br i1 %.not.i, label %proto_item_set_generated.exit, label %75

75:                                               ; preds = %33
  %76 = getelementptr inbounds nuw i8, ptr %74, i64 40
  %77 = load ptr, ptr %76, align 8
  %.not5.i = icmp eq ptr %77, null
  br i1 %.not5.i, label %proto_item_set_generated.exit, label %78

78:                                               ; preds = %75
  %79 = getelementptr inbounds nuw i8, ptr %77, i64 28
  %80 = load i32, ptr %79, align 4
  %81 = or i32 %80, 2
  store i32 %81, ptr %79, align 4
  br label %proto_item_set_generated.exit

proto_item_set_generated.exit:                    ; preds = %33, %75, %78
  call void @llvm.lifetime.end.p0(i64 16, ptr nonnull %10) #13
  br label %82

82:                                               ; preds = %proto_item_set_generated.exit, %29
  call void @llvm.lifetime.end.p0(i64 8, ptr nonnull %9) #13
  call void @llvm.lifetime.end.p0(i64 8, ptr nonnull %8) #13
  call void @llvm.lifetime.end.p0(i64 8, ptr nonnull %7) #13
  call void @llvm.lifetime.end.p0(i64 8, ptr nonnull %6) #13
  ret void
}